target datalayout = "e-m:e-p270:32:32-p271:32:32-p272:64:64-i64:64-i128:128-f80:128-n8:16:32:64-S128"
target triple = "x86_64-pc-linux-gnu"

@progname = internal global ptr null, align 8
@.str.166 = private unnamed_addr constant [18 x i8] c"encoding mismatch\00", align 1
@.str.167 = private unnamed_addr constant [178 x i8] c"The encoding you selected (%s) and the encoding that the selected locale uses (%s) do not match. This would lead to misbehavior in various character string processing functions.\00", align 1
@.str.168 = private unnamed_addr constant [93 x i8] c"Rerun %s and either do not specify an encoding explicitly, or choose a matching combination.\00", align 1

; Function Attrs: nounwind uwtable
define internal zeroext i1 @check_locale_encoding(ptr noundef %0, i32 noundef %1) #0 {
  %3 = alloca i1, align 1
  %4 = alloca ptr, align 8
  %5 = alloca i32, align 4
  %6 = alloca i32, align 4
  %7 = alloca i32, align 4
  store ptr %0, ptr %4, align 8
  store i32 %1, ptr %5, align 4
  call void @llvm.lifetime.start.p0(i64 4, ptr %6) #10
  %8 = load ptr, ptr %4, align 8
  %9 = call i32 @pg_get_encoding_from_locale(ptr noundef %8, i1 noundef zeroext true)
  store i32 %9, ptr %6, align 4
  %10 = load i32, ptr %6, align 4
  %11 = load i32, ptr %5, align 4
  %12 = icmp eq i32 %10, %11
  br i1 %12, label %28, label %13

13:                                               ; preds = %2
  %14 = load i32, ptr %6, align 4
  %15 = icmp eq i32 %14, 0
  br i1 %15, label %28, label %16

16:                                               ; preds = %13
  %17 = load i32, ptr %6, align 4
  %18 = icmp eq i32 %17, -1
  br i1 %18, label %28, label %19

19:                                               ; preds = %16
  %20 = load i32, ptr %5, align 4
  %21 = icmp eq i32 %20, 0
  br i1 %21, label %28, label %22

22:                                               ; preds = %19
  call void (i32, i32, ptr, ...) @pg_log_generic(i32 noundef 4, i32 noundef 0, ptr noundef @.str.166)
  %23 = load i32, ptr %5, align 4
  %24 = call ptr @pg_encoding_to_char_private(i32 noundef %23)
  %25 = load i32, ptr %6, align 4
  %26 = call ptr @pg_encoding_to_char_private(i32 noundef %25)
  call void (i32, i32, ptr, ...) @pg_log_generic(i32 noundef 4, i32 noundef 1, ptr noundef @.str.167, ptr noundef %24, ptr noundef %26)
  %27 = load ptr, ptr @progname, align 8
  call void (i32, i32, ptr, ...) @pg_log_generic(i32 noundef 4, i32 noundef 2, ptr noundef @.str.168, ptr noundef %27)
  store i1 false, ptr %3, align 1
  store i32 1, ptr %7, align 4
  br label %29

28:                                               ; preds = %19, %16, %13, %2
  store i1 true, ptr %3, align 1
  store i32 1, ptr %7, align 4
  br label %29

29:                                               ; preds = %28, %22
  call void @llvm.lifetime.end.p0(i64 4, ptr %6) #10
  %30 = load i1, ptr %3, align 1
  ret i1 %30
}