; Function Attrs: nounwind uwtable
define internal fastcc noundef zeroext i1 @check_locale_encoding(ptr noundef %0, i32 noundef range(i32 0, -1) %1) unnamed_addr #0 {
  %3 = tail call i32 @pg_get_encoding_from_locale(ptr noundef %0, i1 noundef zeroext true) #19
  %4 = icmp eq i32 %3, %1
  %5 = add i32 %3, 1
  %6 = icmp ult i32 %5, 2
  %or.cond3 = or i1 %4, %6
  %7 = icmp eq i32 %1, 0
  %or.cond5 = or i1 %7, %or.cond3
  br i1 %or.cond5, label %12, label %8

8:                                                ; preds = %2
  tail call void (i32, i32, ptr, ...) @pg_log_generic(i32 noundef 4, i32 noundef 0, ptr noundef nonnull @.str.166) #19
  %9 = tail call ptr @pg_encoding_to_char_private(i32 noundef %1) #19
  %10 = tail call ptr @pg_encoding_to_char_private(i32 noundef %3) #19
  tail call void (i32, i32, ptr, ...) @pg_log_generic(i32 noundef 4, i32 noundef 1, ptr noundef nonnull @.str.167, ptr noundef %9, ptr noundef %10) #19
  %11 = load ptr, ptr @progname, align 8
  tail call void (i32, i32, ptr, ...) @pg_log_generic(i32 noundef 4, i32 noundef 2, ptr noundef nonnull @.str.168, ptr noundef %11) #19
  br label %12

12:                                               ; preds = %2, %8
  ret i1 %or.cond5
}